; Function Attrs: mustprogress nounwind uwtable
define internal fastcc void @_ZN12_GLOBAL__N_111DeclPrinter19VisitHLSLBufferDeclEPN5clang14HLSLBufferDeclE(ptr noundef nonnull align 8 dereferenceable(37) %0, ptr noundef %1) unnamed_addr #0 align 2 {
  %3 = getelementptr inbounds nuw i8, ptr %1, i64 92
  %4 = load i8, ptr %3, align 4
  %5 = trunc i8 %4 to i1
  %6 = load ptr, ptr %0, align 8
  %7 = getelementptr inbounds nuw i8, ptr %6, i64 24
  %8 = load ptr, ptr %7, align 8
  %9 = getelementptr inbounds nuw i8, ptr %6, i64 32
  %10 = load ptr, ptr %9, align 8
  %11 = ptrtoint ptr %8 to i64
  %12 = ptrtoint ptr %10 to i64
  %13 = sub i64 %11, %12
  %14 = icmp ult i64 %13, 8
  br i1 %5, label %15, label %21

15:                                               ; preds = %2
  br i1 %14, label %16, label %18

16:                                               ; preds = %15
  %17 = tail call noundef nonnull align 8 dereferenceable(48) ptr @_ZN4llvm11raw_ostream5writeEPKcm(ptr noundef nonnull align 8 dereferenceable(48) %6, ptr noundef nonnull @.str.61, i64 noundef 8) #14
  br label %_ZN4llvm11raw_ostreamlsEPKc.exit

18:                                               ; preds = %15
  store i64 2338042647038747235, ptr %10, align 1
  %19 = load ptr, ptr %9, align 8
  %20 = getelementptr inbounds i8, ptr %19, i64 8
  store ptr %20, ptr %9, align 8
  br label %_ZN4llvm11raw_ostreamlsEPKc.exit

21:                                               ; preds = %2
  br i1 %14, label %22, label %24

22:                                               ; preds = %21
  %23 = tail call noundef nonnull align 8 dereferenceable(48) ptr @_ZN4llvm11raw_ostream5writeEPKcm(ptr noundef nonnull align 8 dereferenceable(48) %6, ptr noundef nonnull @.str.62, i64 noundef 8) #14
  br label %_ZN4llvm11raw_ostreamlsEPKc.exit

24:                                               ; preds = %21
  store i64 2338042647038747252, ptr %10, align 1
  %25 = load ptr, ptr %9, align 8
  %26 = getelementptr inbounds i8, ptr %25, i64 8
  store ptr %26, ptr %9, align 8
  br label %_ZN4llvm11raw_ostreamlsEPKc.exit

_ZN4llvm11raw_ostreamlsEPKc.exit:                 ; preds = %24, %22, %18, %16
  %27 = load ptr, ptr %0, align 8
  tail call void @_ZNK5clang9NamedDecl9printNameERN4llvm11raw_ostreamE(ptr noundef nonnull align 8 dereferenceable(48) %1, ptr noundef nonnull align 8 dereferenceable(48) %27) #14
  %28 = tail call fastcc noundef zeroext i1 @_ZN12_GLOBAL__N_111DeclPrinter21prettyPrintAttributesEPKN5clang4DeclENS0_16AttrPosAsWrittenE(ptr noundef nonnull align 8 dereferenceable(37) %0, ptr noundef nonnull %1, i32 noundef 0)
  %29 = load ptr, ptr %0, align 8
  %30 = getelementptr inbounds nuw i8, ptr %29, i64 24
  %31 = load ptr, ptr %30, align 8
  %32 = getelementptr inbounds nuw i8, ptr %29, i64 32
  %33 = load ptr, ptr %32, align 8
  %34 = ptrtoint ptr %31 to i64
  %35 = ptrtoint ptr %33 to i64
  %36 = sub i64 %34, %35
  %37 = icmp ult i64 %36, 3
  br i1 %37, label %38, label %40

38:                                               ; preds = %_ZN4llvm11raw_ostreamlsEPKc.exit
  %39 = tail call noundef nonnull align 8 dereferenceable(48) ptr @_ZN4llvm11raw_ostream5writeEPKcm(ptr noundef nonnull align 8 dereferenceable(48) %29, ptr noundef nonnull @.str.63, i64 noundef 3) #14
  br label %_ZN4llvm11raw_ostreamlsEPKc.exit10

40:                                               ; preds = %_ZN4llvm11raw_ostreamlsEPKc.exit
  tail call void @llvm.memcpy.p0.p0.i64(ptr noundef nonnull align 1 dereferenceable(3) %33, ptr noundef nonnull align 1 dereferenceable(3) @.str.63, i64 3, i1 false)
  %41 = load ptr, ptr %32, align 8
  %42 = getelementptr inbounds i8, ptr %41, i64 3
  store ptr %42, ptr %32, align 8
  br label %_ZN4llvm11raw_ostreamlsEPKc.exit10

_ZN4llvm11raw_ostreamlsEPKc.exit10:               ; preds = %38, %40
  %43 = getelementptr inbounds i8, ptr %1, i64 48
  tail call fastcc void @_ZN12_GLOBAL__N_111DeclPrinter16VisitDeclContextEPN5clang11DeclContextEb(ptr noundef nonnull align 8 dereferenceable(37) %0, ptr noundef nonnull %43, i1 noundef zeroext true)
  %44 = getelementptr inbounds nuw i8, ptr %0, i64 32
  %45 = load i32, ptr %44, align 8
  %.not3.i.i = icmp eq i32 %45, 0
  br i1 %.not3.i.i, label %_ZN12_GLOBAL__N_111DeclPrinter6IndentEv.exit, label %.lr.ph.i.i

.lr.ph.i.i:                                       ; preds = %_ZN4llvm11raw_ostreamlsEPKc.exit10, %_ZN4llvm11raw_ostreamlsEPKc.exit.i.i
  %.04.i.i = phi i32 [ %60, %_ZN4llvm11raw_ostreamlsEPKc.exit.i.i ], [ 0, %_ZN4llvm11raw_ostreamlsEPKc.exit10 ]
  %46 = load ptr, ptr %0, align 8
  %47 = getelementptr inbounds nuw i8, ptr %46, i64 24
  %48 = load ptr, ptr %47, align 8
  %49 = getelementptr inbounds nuw i8, ptr %46, i64 32
  %50 = load ptr, ptr %49, align 8
  %51 = ptrtoint ptr %48 to i64
  %52 = ptrtoint ptr %50 to i64
  %53 = sub i64 %51, %52
  %54 = icmp ult i64 %53, 2
  br i1 %54, label %55, label %57

55:                                               ; preds = %.lr.ph.i.i
  %56 = tail call noundef nonnull align 8 dereferenceable(48) ptr @_ZN4llvm11raw_ostream5writeEPKcm(ptr noundef nonnull align 8 dereferenceable(48) %46, ptr noundef nonnull @.str.7, i64 noundef 2) #14
  br label %_ZN4llvm11raw_ostreamlsEPKc.exit.i.i

57:                                               ; preds = %.lr.ph.i.i
  store i16 8224, ptr %50, align 1
  %58 = load ptr, ptr %49, align 8
  %59 = getelementptr inbounds i8, ptr %58, i64 2
  store ptr %59, ptr %49, align 8
  br label %_ZN4llvm11raw_ostreamlsEPKc.exit.i.i

_ZN4llvm11raw_ostreamlsEPKc.exit.i.i:             ; preds = %57, %55
  %60 = add nuw i32 %.04.i.i, 1
  %.not.i.i = icmp eq i32 %60, %45
  br i1 %.not.i.i, label %_ZN12_GLOBAL__N_111DeclPrinter6IndentEv.exit, label %.lr.ph.i.i, !llvm.loop !9

_ZN12_GLOBAL__N_111DeclPrinter6IndentEv.exit:     ; preds = %_ZN4llvm11raw_ostreamlsEPKc.exit.i.i, %_ZN4llvm11raw_ostreamlsEPKc.exit10
  %61 = load ptr, ptr %0, align 8
  %62 = getelementptr inbounds nuw i8, ptr %61, i64 24
  %63 = load ptr, ptr %62, align 8
  %64 = getelementptr inbounds nuw i8, ptr %61, i64 32
  %65 = load ptr, ptr %64, align 8
  %66 = icmp eq ptr %63, %65
  br i1 %66, label %67, label %69

67:                                               ; preds = %_ZN12_GLOBAL__N_111DeclPrinter6IndentEv.exit
  %68 = tail call noundef nonnull align 8 dereferenceable(48) ptr @_ZN4llvm11raw_ostream5writeEPKcm(ptr noundef nonnull align 8 dereferenceable(48) %61, ptr noundef nonnull @.str.25, i64 noundef 1) #14
  br label %_ZN4llvm11raw_ostreamlsEPKc.exit13

69:                                               ; preds = %_ZN12_GLOBAL__N_111DeclPrinter6IndentEv.exit
  store i8 125, ptr %65, align 1
  %70 = load ptr, ptr %64, align 8
  %71 = getelementptr inbounds i8, ptr %70, i64 1
  store ptr %71, ptr %64, align 8
  br label %_ZN4llvm11raw_ostreamlsEPKc.exit13

_ZN4llvm11raw_ostreamlsEPKc.exit13:               ; preds = %67, %69
  ret void
}